; ModuleID = '47/5532.c'
source_filename = "47/5532.c"
target datalayout = "e-m:e-p270:32:32-p271:32:32-p272:64:64-i64:64-f80:128-n8:16:32:64-S128"
target triple = "x86_64-pc-linux-gnu"

@.str = private unnamed_addr constant [3 x i8] c"%d\00", align 1
@.str.1 = private unnamed_addr constant [4 x i8] c"%d \00", align 1

; Function Attrs: noinline nounwind uwtable
define dso_local i32 @main(i32 %0, i8** %1) #0 {
  %3 = alloca i32, align 4
  %4 = alloca i32, align 4
  %5 = alloca i8**, align 8
  %6 = alloca i32, align 4
  %7 = alloca [100 x i32], align 16
  %8 = alloca [100 x i32], align 16
  %9 = alloca i32, align 4
  %10 = alloca i32, align 4
  store i32 0, i32* %3, align 4
  store i32 %0, i32* %4, align 4
  store i8** %1, i8*** %5, align 8
  %11 = call i32 (i8*, ...) @__isoc99_scanf(i8* getelementptr inbounds ([3 x i8], [3 x i8]* @.str, i64 0, i64 0), i32* %6)
  store i32 0, i32* %9, align 4
  br label %12

12:                                               ; preds = %21, %2
  %13 = load i32, i32* %9, align 4
  %14 = load i32, i32* %6, align 4
  %15 = icmp slt i32 %13, %14
  br i1 %15, label %16, label %24

16:                                               ; preds = %12
  %17 = load i32, i32* %9, align 4
  %18 = sext i32 %17 to i64
  %19 = getelementptr inbounds [100 x i32], [100 x i32]* %7, i64 0, i64 %18
  %20 = call i32 (i8*, ...) @__isoc99_scanf(i8* getelementptr inbounds ([3 x i8], [3 x i8]* @.str, i64 0, i64 0), i32* %19)
  br label %21

21:                                               ; preds = %16
  %22 = load i32, i32* %9, align 4
  %23 = add nsw i32 %22, 1
  store i32 %23, i32* %9, align 4
  br label %12

24:                                               ; preds = %12
  store i32 0, i32* %9, align 4
  br label %25

25:                                               ; preds = %33, %24
  %26 = load i32, i32* %9, align 4
  %27 = load i32, i32* %6, align 4
  %28 = icmp slt i32 %26, %27
  br i1 %28, label %29, label %36

29:                                               ; preds = %25
  %30 = load i32, i32* %9, align 4
  %31 = sext i32 %30 to i64
  %32 = getelementptr inbounds [100 x i32], [100 x i32]* %8, i64 0, i64 %31
  store i32 0, i32* %32, align 4
  br label %33

33:                                               ; preds = %29
  %34 = load i32, i32* %9, align 4
  %35 = add nsw i32 %34, 1
  store i32 %35, i32* %9, align 4
  br label %25

36:                                               ; preds = %25
  store i32 0, i32* %9, align 4
  br label %37

37:                                               ; preds = %52, %36
  %38 = load i32, i32* %9, align 4
  %39 = load i32, i32* %6, align 4
  %40 = icmp slt i32 %38, %39
  br i1 %40, label %41, label %55

41:                                               ; preds = %37
  %42 = load i32, i32* %9, align 4
  %43 = sext i32 %42 to i64
  %44 = getelementptr inbounds [100 x i32], [100 x i32]* %7, i64 0, i64 %43
  %45 = load i32, i32* %44, align 4
  %46 = load i32, i32* %6, align 4
  %47 = sub nsw i32 %46, 1
  %48 = load i32, i32* %9, align 4
  %49 = sub nsw i32 %47, %48
  %50 = sext i32 %49 to i64
  %51 = getelementptr inbounds [100 x i32], [100 x i32]* %8, i64 0, i64 %50
  store i32 %45, i32* %51, align 4
  br label %52

52:                                               ; preds = %41
  %53 = load i32, i32* %9, align 4
  %54 = add nsw i32 %53, 1
  store i32 %54, i32* %9, align 4
  br label %37

55:                                               ; preds = %37
  store i32 0, i32* %10, align 4
  br label %56

56:                                               ; preds = %67, %55
  %57 = load i32, i32* %10, align 4
  %58 = load i32, i32* %6, align 4
  %59 = sub nsw i32 %58, 1
  %60 = icmp slt i32 %57, %59
  br i1 %60, label %61, label %70

61:                                               ; preds = %56
  %62 = load i32, i32* %10, align 4
  %63 = sext i32 %62 to i64
  %64 = getelementptr inbounds [100 x i32], [100 x i32]* %8, i64 0, i64 %63
  %65 = load i32, i32* %64, align 4
  %66 = call i32 (i8*, ...) @printf(i8* getelementptr inbounds ([4 x i8], [4 x i8]* @.str.1, i64 0, i64 0), i32 %65)
  br label %67

67:                                               ; preds = %61
  %68 = load i32, i32* %10, align 4
  %69 = add nsw i32 %68, 1
  store i32 %69, i32* %10, align 4
  br label %56

70:                                               ; preds = %56
  %71 = load i32, i32* %6, align 4
  %72 = sub nsw i32 %71, 1
  %73 = sext i32 %72 to i64
  %74 = getelementptr inbounds [100 x i32], [100 x i32]* %8, i64 0, i64 %73
  %75 = load i32, i32* %74, align 4
  %76 = call i32 (i8*, ...) @printf(i8* getelementptr inbounds ([3 x i8], [3 x i8]* @.str, i64 0, i64 0), i32 %75)
  ret i32 0
}

declare dso_local i32 @__isoc99_scanf(i8*, ...) #1

declare dso_local i32 @printf(i8*, ...) #1


!llvm.module.flags = !{!0}
!llvm.ident = !{!1}

!0 = !{i32 1, !"wchar_size", i32 4}
!1 = !{!"clang version 10.0.0-4ubuntu1 "}
