; ModuleID = 'source-C-CXX/46/5532.c'
source_filename = "source-C-CXX/46/5532.c"
target datalayout = "e-m:e-p270:32:32-p271:32:32-p272:64:64-i64:64-f80:128-n8:16:32:64-S128"
target triple = "x86_64-pc-linux-gnu"

@.str = private unnamed_addr constant [3 x i8] c"%d\00", align 1
@.str.1 = private unnamed_addr constant [4 x i8] c"%d \00", align 1

; Function Attrs: nofree nounwind sspstrong uwtable
define dso_local i32 @main(i32 %0, i8** nocapture readnone %1) local_unnamed_addr #0 {
  %3 = alloca i32, align 4
  %4 = alloca [100 x i32], align 16
  %5 = alloca [100 x i32], align 16
  %6 = bitcast [100 x i32]* %5 to i8*
  %7 = bitcast i32* %3 to i8*
  call void @llvm.lifetime.start.p0i8(i64 4, i8* nonnull %7) #4
  %8 = call i32 (i8*, ...) @__isoc99_scanf(i8* getelementptr inbounds ([3 x i8], [3 x i8]* @.str, i64 0, i64 0), i32* nonnull %3)
  %9 = bitcast [100 x i32]* %4 to i8*
  call void @llvm.lifetime.start.p0i8(i64 400, i8* nonnull %9) #4
  call void @llvm.lifetime.start.p0i8(i64 400, i8* nonnull %6) #4
  %10 = load i32, i32* %3, align 4, !tbaa !5
  %11 = icmp sgt i32 %10, 0
  br i1 %11, label %14, label %128

12:                                               ; preds = %14
  %13 = icmp sgt i32 %19, 0
  br i1 %13, label %22, label %128

14:                                               ; preds = %2, %14
  %15 = phi i64 [ %18, %14 ], [ 0, %2 ]
  %16 = getelementptr inbounds [100 x i32], [100 x i32]* %4, i64 0, i64 %15
  %17 = call i32 (i8*, ...) @__isoc99_scanf(i8* getelementptr inbounds ([3 x i8], [3 x i8]* @.str, i64 0, i64 0), i32* nonnull %16)
  %18 = add nuw nsw i64 %15, 1
  %19 = load i32, i32* %3, align 4, !tbaa !5
  %20 = sext i32 %19 to i64
  %21 = icmp slt i64 %18, %20
  br i1 %21, label %14, label %12, !llvm.loop !9

22:                                               ; preds = %12
  %23 = zext i32 %19 to i64
  %24 = shl nuw nsw i64 %23, 2
  call void @llvm.memset.p0i8.i64(i8* nonnull align 16 %6, i8 0, i64 %24, i1 false)
  %25 = zext i32 %19 to i64
  %26 = icmp ult i32 %19, 8
  br i1 %26, label %108, label %27

27:                                               ; preds = %22
  %28 = add nsw i64 %25, -1
  %29 = add i32 %19, -1
  %30 = trunc i64 %28 to i32
  %31 = sub i32 %29, %30
  %32 = icmp sgt i32 %31, %29
  %33 = icmp ugt i64 %28, 4294967295
  %34 = or i1 %32, %33
  br i1 %34, label %108, label %35

35:                                               ; preds = %27
  %36 = and i64 %25, 4294967288
  %37 = add nsw i64 %36, -8
  %38 = lshr exact i64 %37, 3
  %39 = add nuw nsw i64 %38, 1
  %40 = and i64 %39, 1
  %41 = icmp eq i64 %37, 0
  br i1 %41, label %85, label %42

42:                                               ; preds = %35
  %43 = and i64 %39, 4611686018427387902
  br label %44

44:                                               ; preds = %44, %42
  %45 = phi i64 [ 0, %42 ], [ %82, %44 ]
  %46 = phi i64 [ %43, %42 ], [ %83, %44 ]
  %47 = getelementptr inbounds [100 x i32], [100 x i32]* %4, i64 0, i64 %45
  %48 = bitcast i32* %47 to <4 x i32>*
  %49 = load <4 x i32>, <4 x i32>* %48, align 16, !tbaa !5
  %50 = getelementptr inbounds i32, i32* %47, i64 4
  %51 = bitcast i32* %50 to <4 x i32>*
  %52 = load <4 x i32>, <4 x i32>* %51, align 16, !tbaa !5
  %53 = trunc i64 %45 to i32
  %54 = xor i32 %53, -1
  %55 = add i32 %19, %54
  %56 = sext i32 %55 to i64
  %57 = getelementptr inbounds [100 x i32], [100 x i32]* %5, i64 0, i64 %56
  %58 = shufflevector <4 x i32> %49, <4 x i32> poison, <4 x i32> <i32 3, i32 2, i32 1, i32 0>
  %59 = getelementptr inbounds i32, i32* %57, i64 -3
  %60 = bitcast i32* %59 to <4 x i32>*
  store <4 x i32> %58, <4 x i32>* %60, align 4, !tbaa !5
  %61 = shufflevector <4 x i32> %52, <4 x i32> poison, <4 x i32> <i32 3, i32 2, i32 1, i32 0>
  %62 = getelementptr inbounds i32, i32* %57, i64 -7
  %63 = bitcast i32* %62 to <4 x i32>*
  store <4 x i32> %61, <4 x i32>* %63, align 4, !tbaa !5
  %64 = or i64 %45, 8
  %65 = getelementptr inbounds [100 x i32], [100 x i32]* %4, i64 0, i64 %64
  %66 = bitcast i32* %65 to <4 x i32>*
  %67 = load <4 x i32>, <4 x i32>* %66, align 16, !tbaa !5
  %68 = getelementptr inbounds i32, i32* %65, i64 4
  %69 = bitcast i32* %68 to <4 x i32>*
  %70 = load <4 x i32>, <4 x i32>* %69, align 16, !tbaa !5
  %71 = trunc i64 %64 to i32
  %72 = xor i32 %71, -1
  %73 = add i32 %19, %72
  %74 = sext i32 %73 to i64
  %75 = getelementptr inbounds [100 x i32], [100 x i32]* %5, i64 0, i64 %74
  %76 = shufflevector <4 x i32> %67, <4 x i32> poison, <4 x i32> <i32 3, i32 2, i32 1, i32 0>
  %77 = getelementptr inbounds i32, i32* %75, i64 -3
  %78 = bitcast i32* %77 to <4 x i32>*
  store <4 x i32> %76, <4 x i32>* %78, align 4, !tbaa !5
  %79 = shufflevector <4 x i32> %70, <4 x i32> poison, <4 x i32> <i32 3, i32 2, i32 1, i32 0>
  %80 = getelementptr inbounds i32, i32* %75, i64 -7
  %81 = bitcast i32* %80 to <4 x i32>*
  store <4 x i32> %79, <4 x i32>* %81, align 4, !tbaa !5
  %82 = add nuw i64 %45, 16
  %83 = add i64 %46, -2
  %84 = icmp eq i64 %83, 0
  br i1 %84, label %85, label %44, !llvm.loop !11

85:                                               ; preds = %44, %35
  %86 = phi i64 [ 0, %35 ], [ %82, %44 ]
  %87 = icmp eq i64 %40, 0
  br i1 %87, label %106, label %88

88:                                               ; preds = %85
  %89 = getelementptr inbounds [100 x i32], [100 x i32]* %4, i64 0, i64 %86
  %90 = bitcast i32* %89 to <4 x i32>*
  %91 = load <4 x i32>, <4 x i32>* %90, align 16, !tbaa !5
  %92 = getelementptr inbounds i32, i32* %89, i64 4
  %93 = bitcast i32* %92 to <4 x i32>*
  %94 = load <4 x i32>, <4 x i32>* %93, align 16, !tbaa !5
  %95 = trunc i64 %86 to i32
  %96 = xor i32 %95, -1
  %97 = add i32 %19, %96
  %98 = sext i32 %97 to i64
  %99 = getelementptr inbounds [100 x i32], [100 x i32]* %5, i64 0, i64 %98
  %100 = shufflevector <4 x i32> %91, <4 x i32> poison, <4 x i32> <i32 3, i32 2, i32 1, i32 0>
  %101 = getelementptr inbounds i32, i32* %99, i64 -3
  %102 = bitcast i32* %101 to <4 x i32>*
  store <4 x i32> %100, <4 x i32>* %102, align 4, !tbaa !5
  %103 = shufflevector <4 x i32> %94, <4 x i32> poison, <4 x i32> <i32 3, i32 2, i32 1, i32 0>
  %104 = getelementptr inbounds i32, i32* %99, i64 -7
  %105 = bitcast i32* %104 to <4 x i32>*
  store <4 x i32> %103, <4 x i32>* %105, align 4, !tbaa !5
  br label %106

106:                                              ; preds = %85, %88
  %107 = icmp eq i64 %36, %25
  br i1 %107, label %126, label %108

108:                                              ; preds = %27, %22, %106
  %109 = phi i64 [ 0, %27 ], [ 0, %22 ], [ %36, %106 ]
  %110 = xor i64 %109, -1
  %111 = and i64 %25, 1
  %112 = icmp eq i64 %111, 0
  br i1 %112, label %122, label %113

113:                                              ; preds = %108
  %114 = getelementptr inbounds [100 x i32], [100 x i32]* %4, i64 0, i64 %109
  %115 = load i32, i32* %114, align 16, !tbaa !5
  %116 = trunc i64 %109 to i32
  %117 = xor i32 %116, -1
  %118 = add i32 %19, %117
  %119 = sext i32 %118 to i64
  %120 = getelementptr inbounds [100 x i32], [100 x i32]* %5, i64 0, i64 %119
  store i32 %115, i32* %120, align 4, !tbaa !5
  %121 = or i64 %109, 1
  br label %122

122:                                              ; preds = %113, %108
  %123 = phi i64 [ %109, %108 ], [ %121, %113 ]
  %124 = sub nsw i64 0, %25
  %125 = icmp eq i64 %110, %124
  br i1 %125, label %126, label %132

126:                                              ; preds = %122, %132, %106
  %127 = icmp sgt i32 %19, 1
  br i1 %127, label %151, label %128

128:                                              ; preds = %12, %2, %126
  %129 = phi i32 [ %19, %126 ], [ %10, %2 ], [ %19, %12 ]
  %130 = add nsw i32 %129, -1
  %131 = sext i32 %130 to i64
  br label %161

132:                                              ; preds = %122, %132
  %133 = phi i64 [ %149, %132 ], [ %123, %122 ]
  %134 = getelementptr inbounds [100 x i32], [100 x i32]* %4, i64 0, i64 %133
  %135 = load i32, i32* %134, align 4, !tbaa !5
  %136 = trunc i64 %133 to i32
  %137 = xor i32 %136, -1
  %138 = add i32 %19, %137
  %139 = sext i32 %138 to i64
  %140 = getelementptr inbounds [100 x i32], [100 x i32]* %5, i64 0, i64 %139
  store i32 %135, i32* %140, align 4, !tbaa !5
  %141 = add nuw nsw i64 %133, 1
  %142 = getelementptr inbounds [100 x i32], [100 x i32]* %4, i64 0, i64 %141
  %143 = load i32, i32* %142, align 4, !tbaa !5
  %144 = trunc i64 %141 to i32
  %145 = xor i32 %144, -1
  %146 = add i32 %19, %145
  %147 = sext i32 %146 to i64
  %148 = getelementptr inbounds [100 x i32], [100 x i32]* %5, i64 0, i64 %147
  store i32 %143, i32* %148, align 4, !tbaa !5
  %149 = add nuw nsw i64 %133, 2
  %150 = icmp eq i64 %149, %25
  br i1 %150, label %126, label %132, !llvm.loop !13

151:                                              ; preds = %126, %151
  %152 = phi i64 [ %156, %151 ], [ 0, %126 ]
  %153 = getelementptr inbounds [100 x i32], [100 x i32]* %5, i64 0, i64 %152
  %154 = load i32, i32* %153, align 4, !tbaa !5
  %155 = call i32 (i8*, ...) @printf(i8* nonnull dereferenceable(1) getelementptr inbounds ([4 x i8], [4 x i8]* @.str.1, i64 0, i64 0), i32 %154)
  %156 = add nuw nsw i64 %152, 1
  %157 = load i32, i32* %3, align 4, !tbaa !5
  %158 = add nsw i32 %157, -1
  %159 = sext i32 %158 to i64
  %160 = icmp slt i64 %156, %159
  br i1 %160, label %151, label %161, !llvm.loop !14

161:                                              ; preds = %151, %128
  %162 = phi i64 [ %131, %128 ], [ %159, %151 ]
  %163 = getelementptr inbounds [100 x i32], [100 x i32]* %5, i64 0, i64 %162
  %164 = load i32, i32* %163, align 4, !tbaa !5
  %165 = call i32 (i8*, ...) @printf(i8* nonnull dereferenceable(1) getelementptr inbounds ([3 x i8], [3 x i8]* @.str, i64 0, i64 0), i32 %164)
  call void @llvm.lifetime.end.p0i8(i64 400, i8* nonnull %6) #4
  call void @llvm.lifetime.end.p0i8(i64 400, i8* nonnull %9) #4
  call void @llvm.lifetime.end.p0i8(i64 4, i8* nonnull %7) #4
  ret i32 0
}

; Function Attrs: argmemonly mustprogress nofree nosync nounwind willreturn
declare void @llvm.lifetime.start.p0i8(i64 immarg, i8* nocapture) #1

; Function Attrs: nofree nounwind
declare noundef i32 @__isoc99_scanf(i8* nocapture noundef readonly, ...) local_unnamed_addr #2

; Function Attrs: nofree nounwind
declare noundef i32 @printf(i8* nocapture noundef readonly, ...) local_unnamed_addr #2

; Function Attrs: argmemonly mustprogress nofree nosync nounwind willreturn
declare void @llvm.lifetime.end.p0i8(i64 immarg, i8* nocapture) #1

; Function Attrs: argmemonly nofree nounwind willreturn writeonly
declare void @llvm.memset.p0i8.i64(i8* nocapture writeonly, i8, i64, i1 immarg) #3


!llvm.module.flags = !{!0, !1, !2, !3}
!llvm.ident = !{!4}

!0 = !{i32 1, !"wchar_size", i32 4}
!1 = !{i32 7, !"PIC Level", i32 2}
!2 = !{i32 7, !"PIE Level", i32 2}
!3 = !{i32 7, !"uwtable", i32 1}
!4 = !{!"clang version 13.0.0"}
!5 = !{!6, !6, i64 0}
!6 = !{!"int", !7, i64 0}
!7 = !{!"omnipotent char", !8, i64 0}
!8 = !{!"Simple C/C++ TBAA"}
!9 = distinct !{!9, !10}
!10 = !{!"llvm.loop.mustprogress"}
!11 = distinct !{!11, !10, !12}
!12 = !{!"llvm.loop.isvectorized", i32 1}
!13 = distinct !{!13, !10, !12}
!14 = distinct !{!14, !10}
